target datalayout = "e-m:e-p270:32:32-p271:32:32-p272:64:64-i64:64-i128:128-f80:128-n8:16:32:64-S128"
target triple = "x86_64-pc-linux-gnu"

%struct.dlist_head = type { %struct.dlist_node }
%struct.dlist_node = type { ptr, ptr }
%struct.ReorderBufferTXN = type { i32, i32, i32, ptr, i64, i64, i64, ptr, i64, i16, i64, %union.anon.4, ptr, i64, %struct.dlist_node, ptr, i32, i64, i64, %struct.dlist_head, %struct.dlist_head, i64, ptr, ptr, %struct.dlist_head, i32, i32, ptr, %struct.dlist_node, %struct.dlist_node, %struct.pairingheap_node, i64, i64, ptr }
%union.anon.4 = type { i64 }
%struct.pairingheap_node = type { ptr, ptr, ptr }

; Function Attrs: inlinehint nounwind uwtable
define internal void @dlist_insert_before(ptr noundef %0, ptr noundef %1) #4 {
  %3 = alloca ptr, align 8
  %4 = alloca ptr, align 8
  store ptr %0, ptr %3, align 8
  store ptr %1, ptr %4, align 8
  %5 = load ptr, ptr %3, align 8
  %6 = getelementptr inbounds nuw %struct.dlist_node, ptr %5, i32 0, i32 0
  %7 = load ptr, ptr %6, align 8
  %8 = load ptr, ptr %4, align 8
  %9 = getelementptr inbounds nuw %struct.dlist_node, ptr %8, i32 0, i32 0
  store ptr %7, ptr %9, align 8
  %10 = load ptr, ptr %3, align 8
  %11 = load ptr, ptr %4, align 8
  %12 = getelementptr inbounds nuw %struct.dlist_node, ptr %11, i32 0, i32 1
  store ptr %10, ptr %12, align 8
  %13 = load ptr, ptr %4, align 8
  %14 = load ptr, ptr %3, align 8
  %15 = getelementptr inbounds nuw %struct.dlist_node, ptr %14, i32 0, i32 0
  store ptr %13, ptr %15, align 8
  %16 = load ptr, ptr %4, align 8
  %17 = load ptr, ptr %4, align 8
  %18 = getelementptr inbounds nuw %struct.dlist_node, ptr %17, i32 0, i32 0
  %19 = load ptr, ptr %18, align 8
  %20 = getelementptr inbounds nuw %struct.dlist_node, ptr %19, i32 0, i32 1
  store ptr %16, ptr %20, align 8
  ret void
}

; Function Attrs: inlinehint nounwind uwtable
define internal void @dlist_init(ptr noundef %0) #4 {
  %2 = alloca ptr, align 8
  store ptr %0, ptr %2, align 8
  %3 = load ptr, ptr %2, align 8
  %4 = getelementptr inbounds nuw %struct.dlist_head, ptr %3, i32 0, i32 0
  %5 = load ptr, ptr %2, align 8
  %6 = getelementptr inbounds nuw %struct.dlist_head, ptr %5, i32 0, i32 0
  %7 = getelementptr inbounds nuw %struct.dlist_node, ptr %6, i32 0, i32 0
  store ptr %4, ptr %7, align 8
  %8 = load ptr, ptr %2, align 8
  %9 = getelementptr inbounds nuw %struct.dlist_head, ptr %8, i32 0, i32 0
  %10 = getelementptr inbounds nuw %struct.dlist_node, ptr %9, i32 0, i32 1
  store ptr %4, ptr %10, align 8
  ret void
}

; Function Attrs: nounwind uwtable
define internal void @AssertTXNLsnOrder(ptr noundef %0) #0 {
  %2 = alloca ptr, align 8
  store ptr %0, ptr %2, align 8
  ret void
}

; Function Attrs: nounwind uwtable
define internal void @ReorderBufferTransferSnapToParent(ptr noundef %0, ptr noundef %1) #0 {
  %3 = alloca ptr, align 8
  %4 = alloca ptr, align 8
  store ptr %0, ptr %3, align 8
  store ptr %1, ptr %4, align 8
  %5 = load ptr, ptr %4, align 8
  %6 = getelementptr inbounds nuw %struct.ReorderBufferTXN, ptr %5, i32 0, i32 12
  %7 = load ptr, ptr %6, align 8
  %8 = icmp ne ptr %7, null
  br i1 %8, label %9, label %65

9:                                                ; preds = %2
  %10 = load ptr, ptr %3, align 8
  %11 = getelementptr inbounds nuw %struct.ReorderBufferTXN, ptr %10, i32 0, i32 12
  %12 = load ptr, ptr %11, align 8
  %13 = icmp eq ptr %12, null
  br i1 %13, label %22, label %14

14:                                               ; preds = %9
  %15 = load ptr, ptr %4, align 8
  %16 = getelementptr inbounds nuw %struct.ReorderBufferTXN, ptr %15, i32 0, i32 13
  %17 = load i64, ptr %16, align 8
  %18 = load ptr, ptr %3, align 8
  %19 = getelementptr inbounds nuw %struct.ReorderBufferTXN, ptr %18, i32 0, i32 13
  %20 = load i64, ptr %19, align 8
  %21 = icmp ult i64 %17, %20
  br i1 %21, label %22, label %54

22:                                               ; preds = %14, %9
  %23 = load ptr, ptr %3, align 8
  %24 = getelementptr inbounds nuw %struct.ReorderBufferTXN, ptr %23, i32 0, i32 12
  %25 = load ptr, ptr %24, align 8
  %26 = icmp ne ptr %25, null
  br i1 %26, label %27, label %33

27:                                               ; preds = %22
  %28 = load ptr, ptr %3, align 8
  %29 = getelementptr inbounds nuw %struct.ReorderBufferTXN, ptr %28, i32 0, i32 12
  %30 = load ptr, ptr %29, align 8
  call void @SnapBuildSnapDecRefcount(ptr noundef %30)
  %31 = load ptr, ptr %3, align 8
  %32 = getelementptr inbounds nuw %struct.ReorderBufferTXN, ptr %31, i32 0, i32 14
  call void @dlist_delete(ptr noundef %32)
  br label %33

33:                                               ; preds = %27, %22
  %34 = load ptr, ptr %4, align 8
  %35 = getelementptr inbounds nuw %struct.ReorderBufferTXN, ptr %34, i32 0, i32 12
  %36 = load ptr, ptr %35, align 8
  %37 = load ptr, ptr %3, align 8
  %38 = getelementptr inbounds nuw %struct.ReorderBufferTXN, ptr %37, i32 0, i32 12
  store ptr %36, ptr %38, align 8
  %39 = load ptr, ptr %4, align 8
  %40 = getelementptr inbounds nuw %struct.ReorderBufferTXN, ptr %39, i32 0, i32 13
  %41 = load i64, ptr %40, align 8
  %42 = load ptr, ptr %3, align 8
  %43 = getelementptr inbounds nuw %struct.ReorderBufferTXN, ptr %42, i32 0, i32 13
  store i64 %41, ptr %43, align 8
  %44 = load ptr, ptr %4, align 8
  %45 = getelementptr inbounds nuw %struct.ReorderBufferTXN, ptr %44, i32 0, i32 14
  %46 = load ptr, ptr %3, align 8
  %47 = getelementptr inbounds nuw %struct.ReorderBufferTXN, ptr %46, i32 0, i32 14
  call void @dlist_insert_before(ptr noundef %45, ptr noundef %47)
  %48 = load ptr, ptr %4, align 8
  %49 = getelementptr inbounds nuw %struct.ReorderBufferTXN, ptr %48, i32 0, i32 12
  store ptr null, ptr %49, align 8
  %50 = load ptr, ptr %4, align 8
  %51 = getelementptr inbounds nuw %struct.ReorderBufferTXN, ptr %50, i32 0, i32 13
  store i64 0, ptr %51, align 8
  %52 = load ptr, ptr %4, align 8
  %53 = getelementptr inbounds nuw %struct.ReorderBufferTXN, ptr %52, i32 0, i32 14
  call void @dlist_delete(ptr noundef %53)
  br label %64

54:                                               ; preds = %14
  %55 = load ptr, ptr %4, align 8
  %56 = getelementptr inbounds nuw %struct.ReorderBufferTXN, ptr %55, i32 0, i32 12
  %57 = load ptr, ptr %56, align 8
  call void @SnapBuildSnapDecRefcount(ptr noundef %57)
  %58 = load ptr, ptr %4, align 8
  %59 = getelementptr inbounds nuw %struct.ReorderBufferTXN, ptr %58, i32 0, i32 14
  call void @dlist_delete(ptr noundef %59)
  %60 = load ptr, ptr %4, align 8
  %61 = getelementptr inbounds nuw %struct.ReorderBufferTXN, ptr %60, i32 0, i32 12
  store ptr null, ptr %61, align 8
  %62 = load ptr, ptr %4, align 8
  %63 = getelementptr inbounds nuw %struct.ReorderBufferTXN, ptr %62, i32 0, i32 13
  store i64 0, ptr %63, align 8
  br label %64

64:                                               ; preds = %54, %33
  br label %65

65:                                               ; preds = %64, %2
  ret void
}

; Function Attrs: inlinehint nounwind uwtable
define internal void @dlist_push_tail(ptr noundef %0, ptr noundef %1) #4 {
  %3 = alloca ptr, align 8
  %4 = alloca ptr, align 8
  store ptr %0, ptr %3, align 8
  store ptr %1, ptr %4, align 8
  %5 = load ptr, ptr %3, align 8
  %6 = getelementptr inbounds nuw %struct.dlist_head, ptr %5, i32 0, i32 0
  %7 = getelementptr inbounds nuw %struct.dlist_node, ptr %6, i32 0, i32 1
  %8 = load ptr, ptr %7, align 8
  %9 = icmp eq ptr %8, null
  br i1 %9, label %10, label %12

10:                                               ; preds = %2
  %11 = load ptr, ptr %3, align 8
  call void @dlist_init(ptr noundef %11)
  br label %12

12:                                               ; preds = %10, %2
  %13 = load ptr, ptr %3, align 8
  %14 = getelementptr inbounds nuw %struct.dlist_head, ptr %13, i32 0, i32 0
  %15 = load ptr, ptr %4, align 8
  %16 = getelementptr inbounds nuw %struct.dlist_node, ptr %15, i32 0, i32 1
  store ptr %14, ptr %16, align 8
  %17 = load ptr, ptr %3, align 8
  %18 = getelementptr inbounds nuw %struct.dlist_head, ptr %17, i32 0, i32 0
  %19 = getelementptr inbounds nuw %struct.dlist_node, ptr %18, i32 0, i32 0
  %20 = load ptr, ptr %19, align 8
  %21 = load ptr, ptr %4, align 8
  %22 = getelementptr inbounds nuw %struct.dlist_node, ptr %21, i32 0, i32 0
  store ptr %20, ptr %22, align 8
  %23 = load ptr, ptr %4, align 8
  %24 = load ptr, ptr %4, align 8
  %25 = getelementptr inbounds nuw %struct.dlist_node, ptr %24, i32 0, i32 0
  %26 = load ptr, ptr %25, align 8
  %27 = getelementptr inbounds nuw %struct.dlist_node, ptr %26, i32 0, i32 1
  store ptr %23, ptr %27, align 8
  %28 = load ptr, ptr %4, align 8
  %29 = load ptr, ptr %3, align 8
  %30 = getelementptr inbounds nuw %struct.dlist_head, ptr %29, i32 0, i32 0
  %31 = getelementptr inbounds nuw %struct.dlist_node, ptr %30, i32 0, i32 0
  store ptr %28, ptr %31, align 8
  ret void
}

; Function Attrs: inlinehint nounwind uwtable
define internal void @dlist_delete(ptr noundef %0) #4 {
  %2 = alloca ptr, align 8
  store ptr %0, ptr %2, align 8
  %3 = load ptr, ptr %2, align 8
  %4 = getelementptr inbounds nuw %struct.dlist_node, ptr %3, i32 0, i32 1
  %5 = load ptr, ptr %4, align 8
  %6 = load ptr, ptr %2, align 8
  %7 = getelementptr inbounds nuw %struct.dlist_node, ptr %6, i32 0, i32 0
  %8 = load ptr, ptr %7, align 8
  %9 = getelementptr inbounds nuw %struct.dlist_node, ptr %8, i32 0, i32 1
  store ptr %5, ptr %9, align 8
  %10 = load ptr, ptr %2, align 8
  %11 = getelementptr inbounds nuw %struct.dlist_node, ptr %10, i32 0, i32 0
  %12 = load ptr, ptr %11, align 8
  %13 = load ptr, ptr %2, align 8
  %14 = getelementptr inbounds nuw %struct.dlist_node, ptr %13, i32 0, i32 1
  %15 = load ptr, ptr %14, align 8
  %16 = getelementptr inbounds nuw %struct.dlist_node, ptr %15, i32 0, i32 0
  store ptr %12, ptr %16, align 8
  ret void
}

; Function Attrs: nounwind uwtable
define dso_local void @ReorderBufferAssignChild(ptr noundef %0, i32 noundef %1, i32 noundef %2, i64 noundef %3) #0 {
  %5 = alloca ptr, align 8
  %6 = alloca i32, align 4
  %7 = alloca i32, align 4
  %8 = alloca i64, align 8
  %9 = alloca ptr, align 8
  %10 = alloca ptr, align 8
  %11 = alloca i8, align 1
  %12 = alloca i8, align 1
  %13 = alloca i32, align 4
  store ptr %0, ptr %5, align 8
  store i32 %1, ptr %6, align 4
  store i32 %2, ptr %7, align 4
  store i64 %3, ptr %8, align 8
  call void @llvm.lifetime.start.p0(i64 8, ptr %9) #13
  call void @llvm.lifetime.start.p0(i64 8, ptr %10) #13
  call void @llvm.lifetime.start.p0(i64 1, ptr %11) #13
  call void @llvm.lifetime.start.p0(i64 1, ptr %12) #13
  %14 = load ptr, ptr %5, align 8
  %15 = load i32, ptr %6, align 4
  %16 = load i64, ptr %8, align 8
  %17 = call ptr @ReorderBufferTXNByXid(ptr noundef %14, i32 noundef %15, i1 noundef zeroext true, ptr noundef %11, i64 noundef %16, i1 noundef zeroext true)
  store ptr %17, ptr %9, align 8
  %18 = load ptr, ptr %5, align 8
  %19 = load i32, ptr %7, align 4
  %20 = load i64, ptr %8, align 8
  %21 = call ptr @ReorderBufferTXNByXid(ptr noundef %18, i32 noundef %19, i1 noundef zeroext true, ptr noundef %12, i64 noundef %20, i1 noundef zeroext false)
  store ptr %21, ptr %10, align 8
  %22 = load i8, ptr %12, align 1, !range !6, !noundef !7
  %23 = trunc i8 %22 to i1
  br i1 %23, label %35, label %24

24:                                               ; preds = %4
  %25 = load ptr, ptr %10, align 8
  %26 = getelementptr inbounds nuw %struct.ReorderBufferTXN, ptr %25, i32 0, i32 0
  %27 = load i32, ptr %26, align 8
  %28 = and i32 %27, 2
  %29 = icmp ne i32 %28, 0
  br i1 %29, label %30, label %31

30:                                               ; preds = %24
  store i32 1, ptr %13, align 4
  br label %57

31:                                               ; preds = %24
  %32 = load ptr, ptr %10, align 8
  %33 = getelementptr inbounds nuw %struct.ReorderBufferTXN, ptr %32, i32 0, i32 28
  call void @dlist_delete(ptr noundef %33)
  br label %34

34:                                               ; preds = %31
  br label %35

35:                                               ; preds = %34, %4
  %36 = load ptr, ptr %10, align 8
  %37 = getelementptr inbounds nuw %struct.ReorderBufferTXN, ptr %36, i32 0, i32 0
  %38 = load i32, ptr %37, align 8
  %39 = or i32 %38, 2
  store i32 %39, ptr %37, align 8
  %40 = load i32, ptr %6, align 4
  %41 = load ptr, ptr %10, align 8
  %42 = getelementptr inbounds nuw %struct.ReorderBufferTXN, ptr %41, i32 0, i32 2
  store i32 %40, ptr %42, align 8
  %43 = load ptr, ptr %9, align 8
  %44 = load ptr, ptr %10, align 8
  %45 = getelementptr inbounds nuw %struct.ReorderBufferTXN, ptr %44, i32 0, i32 7
  store ptr %43, ptr %45, align 8
  %46 = load ptr, ptr %9, align 8
  %47 = getelementptr inbounds nuw %struct.ReorderBufferTXN, ptr %46, i32 0, i32 24
  %48 = load ptr, ptr %10, align 8
  %49 = getelementptr inbounds nuw %struct.ReorderBufferTXN, ptr %48, i32 0, i32 28
  call void @dlist_push_tail(ptr noundef %47, ptr noundef %49)
  %50 = load ptr, ptr %9, align 8
  %51 = getelementptr inbounds nuw %struct.ReorderBufferTXN, ptr %50, i32 0, i32 25
  %52 = load i32, ptr %51, align 8
  %53 = add i32 %52, 1
  store i32 %53, ptr %51, align 8
  %54 = load ptr, ptr %9, align 8
  %55 = load ptr, ptr %10, align 8
  call void @ReorderBufferTransferSnapToParent(ptr noundef %54, ptr noundef %55)
  %56 = load ptr, ptr %5, align 8
  call void @AssertTXNLsnOrder(ptr noundef %56)
  store i32 0, ptr %13, align 4
  br label %57

57:                                               ; preds = %35, %30
  call void @llvm.lifetime.end.p0(i64 1, ptr %12) #13
  call void @llvm.lifetime.end.p0(i64 1, ptr %11) #13
  call void @llvm.lifetime.end.p0(i64 8, ptr %10) #13
  call void @llvm.lifetime.end.p0(i64 8, ptr %9) #13
  %58 = load i32, ptr %13, align 4
  switch i32 %58, label %60 [
    i32 0, label %59
    i32 1, label %59
  ]

59:                                               ; preds = %57, %57
  ret void

60:                                               ; preds = %57
  unreachable
}